target datalayout = "e-m:e-p270:32:32-p271:32:32-p272:64:64-i64:64-i128:128-f80:128-n8:16:32:64-S128"
target triple = "x86_64-pc-linux-gnu"

%struct.Int = type { %struct.Int128_, i32 }
%struct.Int128_ = type { i64, i64 }
%struct.ExprConst = type { i16, %union.anon }
%union.anon = type { %struct.Int }
%struct.Float = type { double, i32 }
%struct.anon = type { ptr, i32 }
%struct.Decl_ = type { ptr, ptr, %union.SourceSpan, i64, %union.anon.2, i32, %union.anon.3, i64, ptr, ptr, ptr, %union.anon.4 }
%union.SourceSpan = type { i64 }
%union.anon.2 = type { ptr }
%union.anon.3 = type { i16 }
%union.anon.4 = type { %struct.FuncDecl }
%struct.FuncDecl = type { i32, [4 x i8], %struct.Signature_, i32, i32, %union.anon.11 }
%struct.Signature_ = type <{ %struct.CalleeAttributes, i16, i8, i32, i32, [4 x i8], ptr }>
%struct.CalleeAttributes = type { i8 }
%union.anon.11 = type { %struct.anon.12 }
%struct.anon.12 = type { i16, %union.anon.13 }
%union.anon.13 = type { ptr }

@.str = private unnamed_addr constant [36 x i8] c"FATAL ERROR %s -> in %s @ in %s:%d \00", align 1
@.str.1 = private unnamed_addr constant [22 x i8] c"Should be unreachable\00", align 1
@.str.2 = private unnamed_addr constant [107 x i8] c"generated/home/dtcxzyw/WorkSpace/Projects/compilers/llvm-opt-benchmark/bench/c3c/c3c/src/compiler/number.c\00", align 1
@.str.3 = private unnamed_addr constant [5 x i8] c"null\00", align 1
@.str.4 = private unnamed_addr constant [3 x i8] c"%p\00", align 1
@.str.5 = private unnamed_addr constant [5 x i8] c"true\00", align 1
@.str.6 = private unnamed_addr constant [6 x i8] c"false\00", align 1
@.str.7 = private unnamed_addr constant [3 x i8] c"%g\00", align 1
@.str.8 = private unnamed_addr constant [7 x i8] c"\22%*.s\22\00", align 1
@.str.9 = private unnamed_addr constant [14 x i8] c"<binary data>\00", align 1
@.str.10 = private unnamed_addr constant [7 x i8] c"member\00", align 1
@.str.11 = private unnamed_addr constant [14 x i8] c"constant list\00", align 1
@.str.12 = private unnamed_addr constant [13 x i8] c"untyped list\00", align 1
@__func__.expr_const_to_error_string = private unnamed_addr constant [27 x i8] c"expr_const_to_error_string\00", align 1

; Function Attrs: nounwind uwtable
define dso_local ptr @expr_const_to_error_string(ptr noundef %0) #0 {
  %2 = alloca ptr, align 8
  %3 = alloca ptr, align 8
  store ptr %0, ptr %3, align 8
  %4 = load ptr, ptr %3, align 8
  %5 = load i16, ptr %4, align 8
  %6 = and i16 %5, 255
  %7 = zext i16 %6 to i32
  switch i32 %7, label %61 [
    i32 7, label %8
    i32 2, label %20
    i32 1, label %26
    i32 0, label %30
    i32 6, label %36
    i32 5, label %46
    i32 3, label %47
    i32 4, label %47
    i32 8, label %53
    i32 11, label %58
    i32 9, label %59
    i32 10, label %60
  ]

8:                                                ; preds = %1
  %9 = load ptr, ptr %3, align 8
  %10 = getelementptr inbounds %struct.ExprConst, ptr %9, i32 0, i32 1
  %11 = load i64, ptr %10, align 8
  %12 = icmp ne i64 %11, 0
  br i1 %12, label %14, label %13

13:                                               ; preds = %8
  store ptr @.str.3, ptr %2, align 8
  br label %63

14:                                               ; preds = %8
  %15 = load ptr, ptr %3, align 8
  %16 = getelementptr inbounds %struct.ExprConst, ptr %15, i32 0, i32 1
  %17 = load i64, ptr %16, align 8
  %18 = inttoptr i64 %17 to ptr
  %19 = call ptr (ptr, ...) @str_printf(ptr noundef @.str.4, ptr noundef %18)
  store ptr %19, ptr %2, align 8
  br label %63

20:                                               ; preds = %1
  %21 = load ptr, ptr %3, align 8
  %22 = getelementptr inbounds %struct.ExprConst, ptr %21, i32 0, i32 1
  %23 = load i8, ptr %22, align 8
  %24 = trunc i8 %23 to i1
  %25 = select i1 %24, ptr @.str.5, ptr @.str.6
  store ptr %25, ptr %2, align 8
  br label %63

26:                                               ; preds = %1
  %27 = load ptr, ptr %3, align 8
  %28 = getelementptr inbounds %struct.ExprConst, ptr %27, i32 0, i32 1
  %29 = call ptr @int_to_str(ptr noundef byval(%struct.Int) align 8 %28, i32 noundef 10)
  store ptr %29, ptr %2, align 8
  br label %63

30:                                               ; preds = %1
  %31 = load ptr, ptr %3, align 8
  %32 = getelementptr inbounds %struct.ExprConst, ptr %31, i32 0, i32 1
  %33 = getelementptr inbounds %struct.Float, ptr %32, i32 0, i32 0
  %34 = load double, ptr %33, align 8
  %35 = call ptr (ptr, ...) @str_printf(ptr noundef @.str.7, double noundef %34)
  store ptr %35, ptr %2, align 8
  br label %63

36:                                               ; preds = %1
  %37 = load ptr, ptr %3, align 8
  %38 = getelementptr inbounds %struct.ExprConst, ptr %37, i32 0, i32 1
  %39 = getelementptr inbounds %struct.anon, ptr %38, i32 0, i32 1
  %40 = load i32, ptr %39, align 8
  %41 = load ptr, ptr %3, align 8
  %42 = getelementptr inbounds %struct.ExprConst, ptr %41, i32 0, i32 1
  %43 = getelementptr inbounds %struct.anon, ptr %42, i32 0, i32 0
  %44 = load ptr, ptr %43, align 8
  %45 = call ptr (ptr, ...) @str_printf(ptr noundef @.str.8, i32 noundef %40, ptr noundef %44)
  store ptr %45, ptr %2, align 8
  br label %63

46:                                               ; preds = %1
  store ptr @.str.9, ptr %2, align 8
  br label %63

47:                                               ; preds = %1, %1
  %48 = load ptr, ptr %3, align 8
  %49 = getelementptr inbounds %struct.ExprConst, ptr %48, i32 0, i32 1
  %50 = load ptr, ptr %49, align 8
  %51 = getelementptr inbounds %struct.Decl_, ptr %50, i32 0, i32 0
  %52 = load ptr, ptr %51, align 8
  store ptr %52, ptr %2, align 8
  br label %63

53:                                               ; preds = %1
  %54 = load ptr, ptr %3, align 8
  %55 = getelementptr inbounds %struct.ExprConst, ptr %54, i32 0, i32 1
  %56 = load ptr, ptr %55, align 8
  %57 = call ptr @type_to_error_string(ptr noundef %56)
  store ptr %57, ptr %2, align 8
  br label %63

58:                                               ; preds = %1
  store ptr @.str.10, ptr %2, align 8
  br label %63

59:                                               ; preds = %1
  store ptr @.str.11, ptr %2, align 8
  br label %63

60:                                               ; preds = %1
  store ptr @.str.12, ptr %2, align 8
  br label %63

61:                                               ; preds = %1
  br label %62

62:                                               ; preds = %61
  call void (ptr, ...) @error_exit(ptr noundef @.str, ptr noundef @.str.1, ptr noundef @__func__.expr_const_to_error_string, ptr noundef @.str.2, i32 noundef 238) #5
  unreachable

63:                                               ; preds = %60, %59, %58, %53, %47, %46, %36, %30, %26, %20, %14, %13
  %64 = load ptr, ptr %2, align 8
  ret ptr %64
}