; Function Attrs: nounwind uwtable
define dso_local ptr @expr_const_to_error_string(ptr noundef %0) local_unnamed_addr #0 {
  %2 = load i16, ptr %0, align 8
  %trunc = trunc i16 %2 to i8
  switch i8 %trunc, label %38 [
    i8 7, label %3
    i8 2, label %9
    i8 1, label %14
    i8 0, label %17
    i8 6, label %21
    i8 5, label %39
    i8 3, label %27
    i8 4, label %27
    i8 8, label %31
    i8 11, label %35
    i8 9, label %36
    i8 10, label %37
  ]

3:                                                ; preds = %1
  %4 = getelementptr inbounds i8, ptr %0, i64 8
  %5 = load i64, ptr %4, align 8
  %.not = icmp eq i64 %5, 0
  br i1 %.not, label %39, label %6

6:                                                ; preds = %3
  %7 = inttoptr i64 %5 to ptr
  %8 = tail call ptr (ptr, ...) @str_printf(ptr noundef nonnull @.str.4, ptr noundef nonnull %7) #6
  br label %39

9:                                                ; preds = %1
  %10 = getelementptr inbounds i8, ptr %0, i64 8
  %11 = load i8, ptr %10, align 8
  %12 = trunc i8 %11 to i1
  %13 = select i1 %12, ptr @.str.5, ptr @.str.6
  br label %39

14:                                               ; preds = %1
  %15 = getelementptr inbounds i8, ptr %0, i64 8
  %16 = tail call ptr @int_to_str(ptr noundef nonnull byval(%struct.Int) align 8 %15, i32 noundef 10) #6
  br label %39

17:                                               ; preds = %1
  %18 = getelementptr inbounds i8, ptr %0, i64 8
  %19 = load double, ptr %18, align 8
  %20 = tail call ptr (ptr, ...) @str_printf(ptr noundef nonnull @.str.7, double noundef %19) #6
  br label %39

21:                                               ; preds = %1
  %22 = getelementptr inbounds i8, ptr %0, i64 8
  %23 = getelementptr inbounds i8, ptr %0, i64 16
  %24 = load i32, ptr %23, align 8
  %25 = load ptr, ptr %22, align 8
  %26 = tail call ptr (ptr, ...) @str_printf(ptr noundef nonnull @.str.8, i32 noundef %24, ptr noundef %25) #6
  br label %39

27:                                               ; preds = %1, %1
  %28 = getelementptr inbounds i8, ptr %0, i64 8
  %29 = load ptr, ptr %28, align 8
  %30 = load ptr, ptr %29, align 8
  br label %39

31:                                               ; preds = %1
  %32 = getelementptr inbounds i8, ptr %0, i64 8
  %33 = load ptr, ptr %32, align 8
  %34 = tail call ptr @type_to_error_string(ptr noundef %33) #6
  br label %39

35:                                               ; preds = %1
  br label %39

36:                                               ; preds = %1
  br label %39

37:                                               ; preds = %1
  br label %39

38:                                               ; preds = %1
  tail call void (ptr, ...) @error_exit(ptr noundef nonnull @.str, ptr noundef nonnull @.str.1, ptr noundef nonnull @__func__.expr_const_to_error_string, ptr noundef nonnull @.str.2, i32 noundef 238) #5
  unreachable

39:                                               ; preds = %1, %3, %37, %36, %35, %31, %27, %21, %17, %14, %9, %6
  %.0 = phi ptr [ @.str.12, %37 ], [ @.str.11, %36 ], [ @.str.10, %35 ], [ %34, %31 ], [ %30, %27 ], [ %26, %21 ], [ %20, %17 ], [ %16, %14 ], [ %13, %9 ], [ %8, %6 ], [ @.str.3, %3 ], [ @.str.9, %1 ]
  ret ptr %.0
}